; ModuleID = '48/476.c'
source_filename = "48/476.c"
target datalayout = "e-m:e-p270:32:32-p271:32:32-p272:64:64-i64:64-f80:128-n8:16:32:64-S128"
target triple = "x86_64-pc-linux-gnu"

@N = dso_local constant i32 9, align 4
@m = common dso_local global i32 0, align 4
@a = common dso_local global [10 x [10 x i32]] zeroinitializer, align 16
@.str = private unnamed_addr constant [5 x i8] c"%d%d\00", align 1
@n = common dso_local global i32 0, align 4
@.str.1 = private unnamed_addr constant [4 x i8] c"%d \00", align 1
@.str.2 = private unnamed_addr constant [4 x i8] c"%d\0A\00", align 1

; Function Attrs: noinline nounwind uwtable
define dso_local void @dfs(i32 %0, i32 %1, i32 %2, i32 %3) #0 {
  %5 = alloca i32, align 4
  %6 = alloca i32, align 4
  %7 = alloca i32, align 4
  %8 = alloca i32, align 4
  %9 = alloca i32, align 4
  %10 = alloca i32, align 4
  store i32 %0, i32* %5, align 4
  store i32 %1, i32* %6, align 4
  store i32 %2, i32* %7, align 4
  store i32 %3, i32* %8, align 4
  %11 = load i32, i32* %5, align 4
  %12 = icmp slt i32 %11, 1
  br i1 %12, label %22, label %13

13:                                               ; preds = %4
  %14 = load i32, i32* %5, align 4
  %15 = icmp sgt i32 %14, 9
  br i1 %15, label %22, label %16

16:                                               ; preds = %13
  %17 = load i32, i32* %6, align 4
  %18 = icmp slt i32 %17, 0
  br i1 %18, label %22, label %19

19:                                               ; preds = %16
  %20 = load i32, i32* %6, align 4
  %21 = icmp sgt i32 %20, 9
  br i1 %21, label %22, label %23

22:                                               ; preds = %19, %16, %13, %4
  br label %75

23:                                               ; preds = %19
  %24 = load i32, i32* %8, align 4
  %25 = load i32, i32* @m, align 4
  %26 = icmp eq i32 %24, %25
  br i1 %26, label %27, label %37

27:                                               ; preds = %23
  %28 = load i32, i32* %7, align 4
  %29 = load i32, i32* %5, align 4
  %30 = sext i32 %29 to i64
  %31 = getelementptr inbounds [10 x [10 x i32]], [10 x [10 x i32]]* @a, i64 0, i64 %30
  %32 = load i32, i32* %6, align 4
  %33 = sext i32 %32 to i64
  %34 = getelementptr inbounds [10 x i32], [10 x i32]* %31, i64 0, i64 %33
  %35 = load i32, i32* %34, align 4
  %36 = add nsw i32 %35, %28
  store i32 %36, i32* %34, align 4
  br label %75

37:                                               ; preds = %23
  %38 = load i32, i32* %5, align 4
  %39 = load i32, i32* %6, align 4
  %40 = load i32, i32* %7, align 4
  %41 = mul nsw i32 %40, 2
  %42 = load i32, i32* %8, align 4
  %43 = add nsw i32 %42, 1
  call void @dfs(i32 %38, i32 %39, i32 %41, i32 %43)
  store i32 -1, i32* %9, align 4
  br label %44

44:                                               ; preds = %72, %37
  %45 = load i32, i32* %9, align 4
  %46 = icmp sle i32 %45, 1
  br i1 %46, label %47, label %75

47:                                               ; preds = %44
  store i32 -1, i32* %10, align 4
  br label %48

48:                                               ; preds = %68, %47
  %49 = load i32, i32* %10, align 4
  %50 = icmp sle i32 %49, 1
  br i1 %50, label %51, label %71

51:                                               ; preds = %48
  %52 = load i32, i32* %9, align 4
  %53 = icmp ne i32 %52, 0
  br i1 %53, label %57, label %54

54:                                               ; preds = %51
  %55 = load i32, i32* %10, align 4
  %56 = icmp ne i32 %55, 0
  br i1 %56, label %57, label %67

57:                                               ; preds = %54, %51
  %58 = load i32, i32* %5, align 4
  %59 = load i32, i32* %9, align 4
  %60 = add nsw i32 %58, %59
  %61 = load i32, i32* %6, align 4
  %62 = load i32, i32* %10, align 4
  %63 = add nsw i32 %61, %62
  %64 = load i32, i32* %7, align 4
  %65 = load i32, i32* %8, align 4
  %66 = add nsw i32 %65, 1
  call void @dfs(i32 %60, i32 %63, i32 %64, i32 %66)
  br label %67

67:                                               ; preds = %57, %54
  br label %68

68:                                               ; preds = %67
  %69 = load i32, i32* %10, align 4
  %70 = add nsw i32 %69, 1
  store i32 %70, i32* %10, align 4
  br label %48

71:                                               ; preds = %48
  br label %72

72:                                               ; preds = %71
  %73 = load i32, i32* %9, align 4
  %74 = add nsw i32 %73, 1
  store i32 %74, i32* %9, align 4
  br label %44

75:                                               ; preds = %22, %27, %44
  ret void
}

; Function Attrs: noinline nounwind uwtable
define dso_local i32 @main() #0 {
  %1 = alloca i32, align 4
  %2 = alloca i32, align 4
  %3 = alloca i32, align 4
  store i32 0, i32* %1, align 4
  %4 = call i32 (i8*, ...) @__isoc99_scanf(i8* getelementptr inbounds ([5 x i8], [5 x i8]* @.str, i64 0, i64 0), i32* @n, i32* @m)
  call void @llvm.memset.p0i8.i64(i8* align 16 bitcast ([10 x [10 x i32]]* @a to i8*), i8 0, i64 400, i1 false)
  %5 = load i32, i32* @n, align 4
  call void @dfs(i32 5, i32 5, i32 %5, i32 0)
  store i32 1, i32* %2, align 4
  br label %6

6:                                                ; preds = %32, %0
  %7 = load i32, i32* %2, align 4
  %8 = icmp sle i32 %7, 9
  br i1 %8, label %9, label %35

9:                                                ; preds = %6
  store i32 1, i32* %3, align 4
  br label %10

10:                                               ; preds = %22, %9
  %11 = load i32, i32* %3, align 4
  %12 = icmp slt i32 %11, 9
  br i1 %12, label %13, label %25

13:                                               ; preds = %10
  %14 = load i32, i32* %2, align 4
  %15 = sext i32 %14 to i64
  %16 = getelementptr inbounds [10 x [10 x i32]], [10 x [10 x i32]]* @a, i64 0, i64 %15
  %17 = load i32, i32* %3, align 4
  %18 = sext i32 %17 to i64
  %19 = getelementptr inbounds [10 x i32], [10 x i32]* %16, i64 0, i64 %18
  %20 = load i32, i32* %19, align 4
  %21 = call i32 (i8*, ...) @printf(i8* getelementptr inbounds ([4 x i8], [4 x i8]* @.str.1, i64 0, i64 0), i32 %20)
  br label %22

22:                                               ; preds = %13
  %23 = load i32, i32* %3, align 4
  %24 = add nsw i32 %23, 1
  store i32 %24, i32* %3, align 4
  br label %10

25:                                               ; preds = %10
  %26 = load i32, i32* %2, align 4
  %27 = sext i32 %26 to i64
  %28 = getelementptr inbounds [10 x [10 x i32]], [10 x [10 x i32]]* @a, i64 0, i64 %27
  %29 = getelementptr inbounds [10 x i32], [10 x i32]* %28, i64 0, i64 9
  %30 = load i32, i32* %29, align 4
  %31 = call i32 (i8*, ...) @printf(i8* getelementptr inbounds ([4 x i8], [4 x i8]* @.str.2, i64 0, i64 0), i32 %30)
  br label %32

32:                                               ; preds = %25
  %33 = load i32, i32* %2, align 4
  %34 = add nsw i32 %33, 1
  store i32 %34, i32* %2, align 4
  br label %6

35:                                               ; preds = %6
  ret i32 0
}

declare dso_local i32 @__isoc99_scanf(i8*, ...) #1

; Function Attrs: argmemonly nounwind willreturn
declare void @llvm.memset.p0i8.i64(i8* nocapture writeonly, i8, i64, i1 immarg) #2

declare dso_local i32 @printf(i8*, ...) #1


!llvm.module.flags = !{!0}
!llvm.ident = !{!1}

!0 = !{i32 1, !"wchar_size", i32 4}
!1 = !{!"clang version 10.0.0-4ubuntu1 "}
